Certificate:
    Data:
        Version: 3 (0x2)
        Serial Number: 1696 (0x6a0)
        Signature Algorithm: sha1WithRSAEncryption
        Issuer: DC=org, DC=ugrid, CN=UGRID CA
        Validity
            Not Before: Dec  9 19:10:37 2014 GMT
            Not After : Dec  9 19:10:37 2015 GMT
        Subject: DC=org, DC=ugrid, O=people, O=UzhNU, CN=Iana Kokriashkina
        Subject Public Key Info:
            Public Key Algorithm: rsaEncryption
            RSA Public Key: (2048 bit)
                Modulus (2048 bit):
                    00:a8:e1:43:b5:ab:7a:a0:5d:9c:6e:03:79:8c:ff:
                    79:57:78:3f:59:86:ca:94:8b:4f:66:90:06:91:f4:
                    20:4b:ca:55:70:8e:04:38:56:60:4a:d6:89:49:0b:
                    12:40:9e:4b:de:89:43:8f:bb:81:f3:59:8a:53:da:
                    69:8c:ad:a5:9e:b4:79:72:b3:70:fa:e9:42:1f:69:
                    e2:69:d8:66:63:c2:4a:0c:13:db:45:52:49:97:18:
                    e1:04:d0:8b:f7:24:68:e6:13:f6:6e:44:e2:1f:19:
                    25:60:95:1d:24:fa:a9:83:74:60:43:38:3b:cc:5e:
                    e1:29:b3:58:88:2d:15:80:62:fb:4a:c5:94:d8:2c:
                    2f:39:c1:4a:ce:1d:f3:6f:3c:5f:0d:c4:64:01:41:
                    b6:26:81:1b:16:22:93:d3:88:43:f6:07:de:09:9d:
                    11:b5:d9:0d:1d:3d:e7:5c:b7:de:72:cb:da:cd:57:
                    72:5d:fb:01:bd:cb:9a:18:4e:8f:1f:bd:4a:aa:65:
                    cc:0e:cb:2e:fa:93:42:80:eb:19:84:4c:e6:ed:06:
                    45:5e:45:4c:d7:87:d9:16:b7:cd:08:00:0f:f6:26:
                    7f:6f:44:dc:02:97:65:a3:0e:68:6f:47:6a:6f:e1:
                    64:98:2c:86:ca:4f:b5:12:99:c9:70:85:fa:98:be:
                    de:e3
                Exponent: 65537 (0x10001)
        X509v3 extensions:
            X509v3 Basic Constraints: critical
                CA:FALSE
            X509v3 Key Usage: critical
                Digital Signature, Non Repudiation, Key Encipherment, Data Encipherment
            X509v3 Extended Key Usage: 
                TLS Web Client Authentication, E-mail Protection
            X509v3 Subject Key Identifier: 
                1F:C3:72:09:E0:DC:1A:63:BC:81:35:27:F3:FC:84:52:ED:10:88:25
            X509v3 Authority Key Identifier: 
                keyid:CD:C0:D7:E1:B5:7D:9F:A9:94:48:4E:E8:14:56:55:94:ED:FF:BC:A0

            X509v3 Issuer Alternative Name: 
                email:ca@ugrid.org
            X509v3 Subject Alternative Name: 
                email:yana.gusti@gmail.com
            X509v3 CRL Distribution Points: 
                URI:http://ca.ugrid.org/cacrl.der

            X509v3 Certificate Policies: 
                Policy: 1.2.840.113612.5.4.2.6.1.1.1.4

    Signature Algorithm: sha1WithRSAEncryption
        33:7d:ef:d3:d9:73:9a:d0:23:83:58:7a:69:5f:dc:7c:f8:90:
        14:38:7f:bf:5f:4c:37:5b:89:5c:d6:af:f9:cf:f6:15:c4:1b:
        3f:d9:b3:bd:ed:ea:e9:2d:3e:88:65:0d:8c:66:56:46:df:a2:
        92:dc:26:65:33:44:46:9a:1a:6a:a6:ad:8c:3d:f3:87:7c:89:
        ff:b5:42:25:c1:09:4d:b4:00:7f:12:5f:33:9f:a3:c8:3b:20:
        8a:9b:e9:e9:66:f9:9c:e7:af:aa:64:7a:ea:64:44:06:91:3f:
        93:b0:6c:e1:7d:18:bd:9c:8e:6d:16:15:c5:ba:92:dc:d5:f7:
        82:50:e4:51:de:8f:67:48:d7:9e:0e:71:17:07:16:7e:d0:9b:
        e5:83:08:13:7d:37:05:82:dc:8a:8b:63:fb:d7:3d:2f:21:92:
        e3:c7:6c:c3:c7:b6:40:69:e5:f0:7d:aa:0c:ab:a0:8b:74:01:
        77:e7:51:b9:22:14:5a:be:ae:7a:ea:8d:df:b6:3d:72:0c:2e:
        c1:cc:5b:2f:14:d6:07:d6:08:84:b3:80:0a:c0:33:25:e0:1e:
        19:14:3a:7c:2c:e3:06:5a:fe:16:f2:3d:10:32:48:f5:b8:97:
        86:84:5a:5b:ce:53:09:77:72:35:4f:bd:b7:1c:79:84:7f:3f:
        3b:2f:a4:ab
-----BEGIN CERTIFICATE-----
MIIELjCCAxagAwIBAgICBqAwDQYJKoZIhvcNAQEFBQAwPzETMBEGCgmSJomT8ixk
ARkWA29yZzEVMBMGCgmSJomT8ixkARkWBXVncmlkMREwDwYDVQQDEwhVR1JJRCBD
QTAeFw0xNDEyMDkxOTEwMzdaFw0xNTEyMDkxOTEwMzdaMGkxEzARBgoJkiaJk/Is
ZAEZFgNvcmcxFTATBgoJkiaJk/IsZAEZFgV1Z3JpZDEPMA0GA1UEChMGcGVvcGxl
MQ4wDAYDVQQKEwVVemhOVTEaMBgGA1UEAxMRSWFuYSBLb2tyaWFzaGtpbmEwggEi
MA0GCSqGSIb3DQEBAQUAA4IBDwAwggEKAoIBAQCo4UO1q3qgXZxuA3mM/3lXeD9Z
hsqUi09mkAaR9CBLylVwjgQ4VmBK1olJCxJAnkveiUOPu4HzWYpT2mmMraWetHly
s3D66UIfaeJp2GZjwkoME9tFUkmXGOEE0Iv3JGjmE/ZuROIfGSVglR0k+qmDdGBD
ODvMXuEps1iILRWAYvtKxZTYLC85wUrOHfNvPF8NxGQBQbYmgRsWIpPTiEP2B94J
nRG12Q0dPedct95yy9rNV3Jd+wG9y5oYTo8fvUqqZcwOyy76k0KA6xmETObtBkVe
RUzXh9kWt80IAA/2Jn9vRNwCl2WjDmhvR2pv4WSYLIbKT7USmclwhfqYvt7jAgMB
AAGjggEIMIIBBDAMBgNVHRMBAf8EAjAAMA4GA1UdDwEB/wQEAwIE8DAdBgNVHSUE
FjAUBggrBgEFBQcDAgYIKwYBBQUHAwQwHQYDVR0OBBYEFB/Dcgng3BpjvIE1J/P8
hFLtEIglMB8GA1UdIwQYMBaAFM3A1+G1fZ+plEhO6BRWVZTt/7ygMBcGA1UdEgQQ
MA6BDGNhQHVncmlkLm9yZzAfBgNVHREEGDAWgRR5YW5hLmd1c3RpQGdtYWlsLmNv
bTAuBgNVHR8EJzAlMCOgIaAfhh1odHRwOi8vY2EudWdyaWQub3JnL2NhY3JsLmRl
cjAbBgNVHSAEFDASMBAGDiqGSIb3TAUEAgYBAQEEMA0GCSqGSIb3DQEBBQUAA4IB
AQAzfe/T2XOa0CODWHppX9x8+JAUOH+/X0w3W4lc1q/5z/YVxBs/2bO97erpLT6I
ZQ2MZlZG36KS3CZlM0RGmhpqpq2MPfOHfIn/tUIlwQlNtAB/El8zn6PIOyCKm+np
Zvmc56+qZHrqZEQGkT+TsGzhfRi9nI5tFhXFupLc1feCUORR3o9nSNeeDnEXBxZ+
0JvlgwgTfTcFgtyKi2P71z0vIZLjx2zDx7ZAaeXwfaoMq6CLdAF351G5IhRavq56
6o3ftj1yDC7BzFsvFNYH1giEs4AKwDMl4B4ZFDp8LOMGWv4W8j0QMkj1uJeGhFpb
zlMJd3I1T723HHmEfz87L6Sr
-----END CERTIFICATE-----
