Certificate:
    Data:
        Version: 3 (0x2)
        Serial Number: 1416 (0x588)
        Signature Algorithm: sha1WithRSAEncryption
        Issuer: DC=org, DC=ugrid, CN=UGRID CA
        Validity
            Not Before: Dec  6 16:31:32 2013 GMT
            Not After : Dec  6 16:31:32 2014 GMT
        Subject: DC=org, DC=ugrid, O=people, O=UzhNU, CN=Iana Kokriashkina
        Subject Public Key Info:
            Public Key Algorithm: rsaEncryption
            RSA Public Key: (2048 bit)
                Modulus (2048 bit):
                    00:c5:94:f9:11:15:dc:dd:41:ba:89:29:2f:09:25:
                    e5:fb:59:06:f5:f2:17:cd:2e:49:09:a0:f1:9a:de:
                    15:de:cb:7d:e1:a7:c9:a3:06:2c:ce:cd:d6:a8:3d:
                    73:7e:8b:5c:b2:f8:f3:f0:28:82:ae:b8:e2:2b:be:
                    10:93:b2:71:14:42:e6:48:da:af:7d:c7:31:ad:8f:
                    c6:d3:b4:ea:d8:0d:3e:cb:43:95:0b:b3:5f:aa:dd:
                    3f:98:b8:41:21:fe:ac:5c:87:5b:82:ea:9a:4d:77:
                    f6:7d:70:e0:fb:73:1e:60:40:39:f7:c2:62:15:32:
                    3f:46:b3:cb:a6:bc:57:61:6c:ad:de:c4:33:bc:3d:
                    f2:92:03:ef:41:68:83:12:70:62:7d:73:2d:33:0c:
                    cf:56:28:23:a3:a3:ec:25:68:9b:3c:07:1a:4b:d7:
                    45:68:ae:4b:eb:1c:ec:a3:e1:f9:56:2a:78:b7:9e:
                    8e:09:9e:e4:aa:29:2e:f5:20:cf:f4:a8:1d:8a:d4:
                    f1:05:ba:4f:a9:12:4b:47:28:97:8e:4a:0a:d7:76:
                    7d:b8:b8:27:34:f4:70:75:2b:9b:79:a6:5d:86:ce:
                    8d:7c:43:cd:89:55:5d:f2:f7:d8:83:2c:51:c4:40:
                    cf:5f:8e:62:03:19:17:f3:fe:18:67:0f:6b:58:29:
                    87:8f
                Exponent: 65537 (0x10001)
        X509v3 extensions:
            X509v3 Basic Constraints: critical
                CA:FALSE
            X509v3 Key Usage: critical
                Digital Signature, Non Repudiation, Key Encipherment, Data Encipherment
            X509v3 Extended Key Usage: 
                TLS Web Client Authentication, E-mail Protection
            X509v3 Subject Key Identifier: 
                47:0D:6F:FB:E6:14:41:E1:01:61:CD:A5:8C:F6:F2:15:A1:4A:FD:84
            X509v3 Authority Key Identifier: 
                keyid:CD:C0:D7:E1:B5:7D:9F:A9:94:48:4E:E8:14:56:55:94:ED:FF:BC:A0

            X509v3 Issuer Alternative Name: 
                email:ca@ugrid.org
            X509v3 Subject Alternative Name: 
                email:yana.gusti@gmail.com
            X509v3 CRL Distribution Points: 
                URI:http://ca.ugrid.org/cacrl.der

            X509v3 Certificate Policies: 
                Policy: 1.2.840.113612.5.4.2.6.1.1.1.4

    Signature Algorithm: sha1WithRSAEncryption
        4d:38:b9:d6:26:ca:cc:27:cd:da:23:dc:4a:c5:d6:5b:1f:71:
        c0:e1:89:c2:c3:21:43:34:0b:18:4f:31:ac:b8:32:a8:18:39:
        0b:6f:89:3b:b1:16:3a:bd:3f:da:6a:5f:a3:b7:af:20:37:62:
        14:53:72:35:b6:b4:e0:66:5e:f2:1e:1a:a7:81:1e:68:71:4f:
        f5:0f:1c:d4:ca:44:26:24:e1:cb:7b:33:2f:ed:91:c6:5e:2b:
        28:04:b3:e6:09:59:1f:56:53:ce:ad:f2:a9:5d:bc:14:23:d2:
        be:0a:a5:6a:d1:4b:1e:0d:9f:43:45:a0:d8:52:ca:38:98:cf:
        ec:7f:de:e4:9b:c0:13:7f:06:d5:3b:b3:6e:1b:9d:2b:5a:d5:
        81:5f:19:70:c0:4d:d2:fc:47:f9:52:7e:61:90:f0:d2:43:5f:
        a1:ed:ea:bd:ba:3d:cd:c8:02:8a:7c:1c:82:8c:7c:62:59:43:
        7f:51:49:98:06:0b:22:82:7b:a7:1c:cf:e6:43:e1:78:9e:e9:
        1c:75:20:42:3c:b0:71:b3:69:b0:7b:2a:25:51:b2:f2:27:d9:
        5a:93:cb:e1:4d:33:96:9f:4f:ae:ea:f3:31:0b:99:48:8a:77:
        80:a9:9f:3e:69:45:90:77:a3:d6:87:b6:b6:b1:e6:ab:36:f5:
        49:e1:16:17
-----BEGIN CERTIFICATE-----
MIIELjCCAxagAwIBAgICBYgwDQYJKoZIhvcNAQEFBQAwPzETMBEGCgmSJomT8ixk
ARkWA29yZzEVMBMGCgmSJomT8ixkARkWBXVncmlkMREwDwYDVQQDEwhVR1JJRCBD
QTAeFw0xMzEyMDYxNjMxMzJaFw0xNDEyMDYxNjMxMzJaMGkxEzARBgoJkiaJk/Is
ZAEZFgNvcmcxFTATBgoJkiaJk/IsZAEZFgV1Z3JpZDEPMA0GA1UEChMGcGVvcGxl
MQ4wDAYDVQQKEwVVemhOVTEaMBgGA1UEAxMRSWFuYSBLb2tyaWFzaGtpbmEwggEi
MA0GCSqGSIb3DQEBAQUAA4IBDwAwggEKAoIBAQDFlPkRFdzdQbqJKS8JJeX7WQb1
8hfNLkkJoPGa3hXey33hp8mjBizOzdaoPXN+i1yy+PPwKIKuuOIrvhCTsnEUQuZI
2q99xzGtj8bTtOrYDT7LQ5ULs1+q3T+YuEEh/qxch1uC6ppNd/Z9cOD7cx5gQDn3
wmIVMj9Gs8umvFdhbK3exDO8PfKSA+9BaIMScGJ9cy0zDM9WKCOjo+wlaJs8BxpL
10VorkvrHOyj4flWKni3no4JnuSqKS71IM/0qB2K1PEFuk+pEktHKJeOSgrXdn24
uCc09HB1K5t5pl2Gzo18Q82JVV3y99iDLFHEQM9fjmIDGRfz/hhnD2tYKYePAgMB
AAGjggEIMIIBBDAMBgNVHRMBAf8EAjAAMA4GA1UdDwEB/wQEAwIE8DAdBgNVHSUE
FjAUBggrBgEFBQcDAgYIKwYBBQUHAwQwHQYDVR0OBBYEFEcNb/vmFEHhAWHNpYz2
8hWhSv2EMB8GA1UdIwQYMBaAFM3A1+G1fZ+plEhO6BRWVZTt/7ygMBcGA1UdEgQQ
MA6BDGNhQHVncmlkLm9yZzAfBgNVHREEGDAWgRR5YW5hLmd1c3RpQGdtYWlsLmNv
bTAuBgNVHR8EJzAlMCOgIaAfhh1odHRwOi8vY2EudWdyaWQub3JnL2NhY3JsLmRl
cjAbBgNVHSAEFDASMBAGDiqGSIb3TAUEAgYBAQEEMA0GCSqGSIb3DQEBBQUAA4IB
AQBNOLnWJsrMJ83aI9xKxdZbH3HA4YnCwyFDNAsYTzGsuDKoGDkLb4k7sRY6vT/a
al+jt68gN2IUU3I1trTgZl7yHhqngR5ocU/1DxzUykQmJOHLezMv7ZHGXisoBLPm
CVkfVlPOrfKpXbwUI9K+CqVq0UseDZ9DRaDYUso4mM/sf97km8ATfwbVO7NuG50r
WtWBXxlwwE3S/Ef5Un5hkPDSQ1+h7eq9uj3NyAKKfByCjHxiWUN/UUmYBgsignun
HM/mQ+F4nukcdSBCPLBxs2mweyolUbLyJ9lak8vhTTOWn0+u6vMxC5lIineAqZ8+
aUWQd6PWh7a2searNvVJ4RYX
-----END CERTIFICATE-----
